Certificate:
    Data:
        Version: 3 (0x2)
        Serial Number: 1 (0x1)
        Signature Algorithm: sha1WithRSAEncryption
        Issuer: C=US, ST=Massachusetts, O=Massachusetts Institute of Technology, OU=Client CA v1
        Validity
            Not Before: Jun  7 22:07:25 2006 GMT
            Not After : Aug  1 22:07:25 2026 GMT
        Subject: C=US, ST=Massachusetts, O=Massachusetts Institute of Technology, OU=Client CA v1
        Subject Public Key Info:
            Public Key Algorithm: rsaEncryption
            RSA Public Key: (1024 bit)
                Modulus (1024 bit):
                    00:c1:5d:75:09:ae:0e:c9:64:e7:94:5e:85:1f:cc:
                    fc:33:00:94:6b:72:f9:27:1b:85:b2:b2:ec:cf:b6:
                    ab:19:e4:c3:4b:7f:56:8d:6c:b0:0e:00:99:33:7b:
                    ce:0a:f3:a9:ce:21:85:63:38:9c:4b:b9:f8:25:0b:
                    b2:d3:84:2e:4f:ee:97:75:cd:9b:13:1e:ee:24:e8:
                    68:79:3c:ff:57:2a:40:e0:32:30:72:cb:f6:d0:8e:
                    b7:0a:0a:f5:e1:a3:0d:cf:95:2b:e0:a5:90:8f:29:
                    fa:cd:c8:10:db:be:9f:9c:cf:dc:24:3d:f0:cc:0c:
                    d7:d9:f5:3d:98:5f:f5:2c:51
                Exponent: 65537 (0x10001)
        X509v3 extensions:
            X509v3 Subject Key Identifier: 
                01:18:9B:8F:4C:6D:CA:6E:BA:3F:AB:25:02:FD:1E:08:C0:7A:C2:8F
            X509v3 Authority Key Identifier: 
                keyid:01:18:9B:8F:4C:6D:CA:6E:BA:3F:AB:25:02:FD:1E:08:C0:7A:C2:8F
                DirName:/C=US/ST=Massachusetts/O=Massachusetts Institute of Technology/OU=Client CA v1
                serial:01

            X509v3 Basic Constraints: 
                CA:TRUE
            X509v3 Key Usage: 
                Certificate Sign, CRL Sign
            Netscape Cert Type: 
                SSL CA, S/MIME CA
    Signature Algorithm: sha1WithRSAEncryption
        2f:c9:ec:a4:d0:8c:35:d4:8b:dc:40:34:35:b1:66:62:9c:d3:
        66:27:f7:44:c1:86:a6:e0:fd:fe:de:9b:af:fd:48:73:bd:bd:
        c4:86:af:4e:1a:b6:f7:bb:f7:00:b1:80:ce:3a:9b:51:ef:77:
        8f:77:b3:1c:93:80:f2:52:1f:95:27:e8:6a:ca:f0:24:35:23:
        2a:aa:e2:05:ef:8c:b0:4e:45:b9:6b:89:c3:82:9f:2b:b9:29:
        a6:99:eb:73:63:63:19:e3:c2:fc:0d:da:ec:bd:a2:9b:2e:5e:
        68:a3:30:02:7f:80:be:eb:e0:67:7d:bc:af:94:ce:cc:f4:aa:
        62:4f
-----BEGIN CERTIFICATE-----
MIIDODCCAqGgAwIBAgIBATANBgkqhkiG9w0BAQUFADBsMQswCQYDVQQGEwJVUzEW
MBQGA1UECBMNTWFzc2FjaHVzZXR0czEuMCwGA1UEChMlTWFzc2FjaHVzZXR0cyBJ
bnN0aXR1dGUgb2YgVGVjaG5vbG9neTEVMBMGA1UECxMMQ2xpZW50IENBIHYxMB4X
DTA2MDYwNzIyMDcyNVoXDTI2MDgwMTIyMDcyNVowbDELMAkGA1UEBhMCVVMxFjAU
BgNVBAgTDU1hc3NhY2h1c2V0dHMxLjAsBgNVBAoTJU1hc3NhY2h1c2V0dHMgSW5z
dGl0dXRlIG9mIFRlY2hub2xvZ3kxFTATBgNVBAsTDENsaWVudCBDQSB2MTCBnzAN
BgkqhkiG9w0BAQEFAAOBjQAwgYkCgYEAwV11Ca4OyWTnlF6FH8z8MwCUa3L5JxuF
srLsz7arGeTDS39WjWywDgCZM3vOCvOpziGFYzicS7n4JQuy04QuT+6Xdc2bEx7u
JOhoeTz/VypA4DIwcsv20I63Cgr14aMNz5Ur4KWQjyn6zcgQ276fnM/cJD3wzAzX
2fU9mF/1LFECAwEAAaOB6TCB5jAdBgNVHQ4EFgQUARibj0xtym66P6slAv0eCMB6
wo8wgZYGA1UdIwSBjjCBi4AUARibj0xtym66P6slAv0eCMB6wo+hcKRuMGwxCzAJ
BgNVBAYTAlVTMRYwFAYDVQQIEw1NYXNzYWNodXNldHRzMS4wLAYDVQQKEyVNYXNz
YWNodXNldHRzIEluc3RpdHV0ZSBvZiBUZWNobm9sb2d5MRUwEwYDVQQLEwxDbGll
bnQgQ0EgdjGCAQEwDAYDVR0TBAUwAwEB/zALBgNVHQ8EBAMCAQYwEQYJYIZIAYb4
QgEBBAQDAgEGMA0GCSqGSIb3DQEBBQUAA4GBAC/J7KTQjDXUi9xANDWxZmKc02Yn
90TBhqbg/f7em6/9SHO9vcSGr04atve79wCxgM46m1Hvd493sxyTgPJSH5Un6GrK
8CQ1Iyqq4gXvjLBORblricOCnyu5KaaZ63NjYxnjwvwN2uy9opsuXmijMAJ/gL7r
4Gd9vK+Uzsz0qmJP
-----END CERTIFICATE-----
